; Function Attrs: mustprogress uwtable
define dso_local void @_ZN4Luau7CodeGen3X6418AssemblyBuilderX643ud2Ev(ptr noundef nonnull align 8 dereferenceable(252) %0) local_unnamed_addr #0 align 2 {
  %2 = getelementptr inbounds nuw i8, ptr %0, i64 80
  %3 = load i8, ptr %2, align 8, !tbaa !14, !range !61, !noundef !62
  %4 = trunc nuw i8 %3 to i1
  br i1 %4, label %5, label %6

5:                                                ; preds = %1
  tail call void @_ZN4Luau7CodeGen3X6418AssemblyBuilderX643logEPKc(ptr noundef nonnull align 8 dereferenceable(252) %0, ptr noundef nonnull @.str.33)
  br label %6

6:                                                ; preds = %5, %1
  %7 = getelementptr inbounds nuw i8, ptr %0, i64 232
  %8 = load ptr, ptr %7, align 8, !tbaa !51
  %9 = getelementptr inbounds nuw i8, ptr %8, i64 1
  store ptr %9, ptr %7, align 8, !tbaa !51
  store i8 15, ptr %8, align 1, !tbaa !13
  %10 = load ptr, ptr %7, align 8, !tbaa !51
  %11 = getelementptr inbounds nuw i8, ptr %10, i64 1
  store ptr %11, ptr %7, align 8, !tbaa !51
  store i8 11, ptr %10, align 1, !tbaa !13
  ret void
}